; Function Attrs: nounwind uwtable
define hidden void @zif_stream_supports_lock(ptr noundef %0, ptr nocapture noundef writeonly %1) local_unnamed_addr #0 {
  %3 = getelementptr inbounds i8, ptr %0, i64 44
  %4 = load i32, ptr %3, align 4
  %cond = icmp eq i32 %4, 1
  br i1 %cond, label %6, label %5

5:                                                ; preds = %2
  tail call void @zend_wrong_parameters_count_error(i32 noundef 1, i32 noundef 1) #10
  br label %10

6:                                                ; preds = %2
  %7 = getelementptr inbounds i8, ptr %0, i64 80
  %8 = getelementptr inbounds i8, ptr %0, i64 88
  %9 = load i8, ptr %8, align 8
  %.not49 = icmp eq i8 %9, 9
  br i1 %.not49, label %11, label %10

10:                                               ; preds = %5, %6
  %.044.ph = phi ptr [ %7, %6 ], [ null, %5 ]
  %.043.ph = phi i32 [ 14, %6 ], [ 0, %5 ]
  %.042.ph = phi i32 [ 1, %6 ], [ 0, %5 ]
  %.0.ph = phi i32 [ 9, %6 ], [ 1, %5 ]
  tail call void @zend_wrong_parameter_error(i32 noundef %.0.ph, i32 noundef %.042.ph, ptr noundef null, i32 noundef %.043.ph, ptr noundef %.044.ph) #10
  br label %22

11:                                               ; preds = %6
  %12 = tail call i32 @php_file_le_stream() #10
  %13 = tail call i32 @php_file_le_pstream() #10
  %14 = tail call ptr @zend_fetch_resource2_ex(ptr noundef nonnull %7, ptr noundef nonnull @.str.6, i32 noundef %12, i32 noundef %13) #10
  %15 = icmp eq ptr %14, null
  br i1 %15, label %22, label %16

16:                                               ; preds = %11
  %17 = tail call i32 @_php_stream_set_option(ptr noundef nonnull %14, i32 noundef 6, i32 noundef 0, ptr noundef nonnull inttoptr (i64 1 to ptr)) #10
  %18 = icmp eq i32 %17, 0
  %19 = getelementptr inbounds i8, ptr %1, i64 8
  br i1 %18, label %21, label %20

20:                                               ; preds = %16
  store i32 2, ptr %19, align 8
  br label %22

21:                                               ; preds = %16
  store i32 3, ptr %19, align 8
  br label %22

22:                                               ; preds = %11, %21, %20, %10
  ret void
}